(dp0
Vtold us
p1
I943
sVgood food
p2
I864
sVforget
p3
I0
sVchain
p4
I408
sVlack
p5
I1
sVdollar
p6
I2
sVmonth
p7
I3
sVfour
p8
I4
sVdish
p9
I5
sVhate
p10
I6
sVbrunch
p11
I678
sVpad thai
p12
I906
sVlong time
p13
I887
sVdecid
p14
I411
sVmiddl
p15
I412
sVtv
p16
I7
sVsorri
p17
I8
sVfriendli
p18
I413
sVbest ive
p19
I812
sVcertainli
p20
I414
sVyummi
p21
I415
sVgrab
p22
I645
sVleav
p23
I746
sVworth
p24
I9
sVbar area
p25
I809
sVbrown
p26
I416
sVliter
p27
I10
sVeveri
p28
I11
sVsausag
p29
I417
sVgreat place
p30
I869
sVfar
p31
I12
sVdessert
p32
I418
sVsoul food
p33
I937
sVfan
p34
I13
sVparti
p35
I689
sVcook
p36
I419
sVappar
p37
I14
sVlook
p38
I284
sVtri
p39
I421
sVmuch better
p40
I898
sVschool
p41
I16
sVsalad
p42
I476
sVharri
p43
I17
sVdie
p44
I423
sVlist
p45
I18
sVfrozen
p46
I19
sVlook forward
p47
I888
sVright away
p48
I928
sVsmall
p49
I20
sVhavent
p50
I153
sVdip
p51
I427
sVenjoy
p52
I21
sVpork
p53
I429
sVlittl bit
p54
I886
sVneighborhood
p55
I22
sVcome back
p56
I821
sVtea
p57
I23
sVhighli recommend
p58
I873
sVbacon
p59
I24
sVpepper
p60
I747
sVsign
p61
I430
sVpast
p62
I25
sVburger
p63
I26
sVrate
p64
I27
sVstreet
p65
I28
sVbooth
p66
I432
sVgo
p67
I410
sVpass
p68
I29
sVprimanti
p69
I433
sVill
p70
I684
sVrealli want
p71
I923
sVbake
p72
I434
sVcasual
p73
I30
sVgnocchi
p74
I435
sVexcit
p75
I31
sVwould recommend
p76
I953
sVsub
p77
I32
sVcompar
p78
I436
sVfact
p79
I623
sVcrust
p80
I219
sVitalian restaur
p81
I879
sVmelt
p82
I437
sVfirst time
p83
I844
sValso good
p84
I806
sVnew
p85
I34
sVever
p86
I35
sVexcept
p87
I715
sVtold
p88
I36
sVfish sandwich
p89
I845
sVegg roll
p90
I837
sVfull
p91
I37
sVdefinit recommend
p92
I828
sVchose
p93
I438
sVdespit
p94
I439
sVgener
p95
I440
sVnever
p96
I38
sVfrench
p97
I441
sVsatisfi
p98
I257
sVfun
p99
I39
sVlet
p100
I443
sVfree
p101
I146
sVdine room
p102
I831
sValong
p103
I445
sVstandard
p104
I147
sVsinc
p105
I446
sVwait
p106
I447
sVbox
p107
I448
sVbuck
p108
I449
sVgreat
p109
I450
sVconvers
p110
I451
sVsoul
p111
I478
sVvegetarian
p112
I42
sVcorn beef
p113
I823
sVdri
p114
I43
sVdefinit back
p115
I826
sVamount
p116
I44
sVmani time
p117
I895
sVarent
p118
I45
sVsmoke
p119
I46
sVpick
p120
I47
sVearli
p121
I718
sVopinion
p122
I313
sVtypic
p123
I315
sVwait staff
p124
I946
sVmix
p125
I605
sVchanc
p126
I454
sVlove
p127
I455
sVextra
p128
I456
sVapp
p129
I457
sVprefer
p130
I458
sVhoagi
p131
I459
sVhomemad
p132
I48
sVupstair
p133
I635
sVbrought
p134
I49
sVask
p135
I152
sVfamili
p136
I51
sVduck
p137
I351
sVtap
p138
I486
sVtotal
p139
I52
sVestablish
p140
I53
sVselect
p141
I54
sVhighli
p142
I55
sVcreami
p143
I462
sVuse
p144
I463
sVeye
p145
I56
sVbar food
p146
I810
sVwould
p147
I57
sVvisit
p148
I464
sVtwo
p149
I58
sVnext
p150
I465
sValmost
p151
I686
sVlive
p152
I466
sVcall
p153
I59
sVcrab
p154
I467
sVrecommend
p155
I60
sVtaken
p156
I61
sVblack
p157
I636
sVtype
p158
I62
sVtell
p159
I63
sVtoday
p160
I469
sVsort
p161
I470
sVdoor
p162
I65
sVpeopl
p163
I471
sVappet
p164
I472
sVimpress
p165
I473
sVnotic
p166
I66
sVdowntown
p167
I474
sVglass
p168
I67
sVwarm
p169
I68
sVstick
p170
I69
sVaccommod
p171
I743
sVactual
p172
I500
sVgiven
p173
I572
sVglad
p174
I70
sVmust
p175
I71
sVtown
p176
I72
sVgrill
p177
I73
sVchines food
p178
I818
sVword
p179
I74
sVroom
p180
I75
sVhour
p181
I76
sVhous
p182
I77
sVfeel like
p183
I842
sVprepar
p184
I477
sVwork
p185
I78
sVuniqu
p186
I460
sVbreakfast
p187
I598
sVsoup
p188
I479
sVsour
p189
I480
sVthin
p190
I481
sVmeet
p191
I482
sVfood alway
p192
I846
sVdidnt
p193
I483
sVemploye
p194
I484
sVheart
p195
I485
sVdine experi
p196
I830
sVsalti
p197
I79
sVpatron
p198
I487
sVgive
p199
I80
sVslightli
p200
I488
sVchip
p201
I489
sVshare
p202
I81
sVwaiter
p203
I554
sVive ever
p204
I880
sVhigh
p205
I490
sVheard
p206
I491
sVcrazi
p207
I492
sVpork chop
p208
I914
sVtabl
p209
I493
sVwant
p210
I82
sVwow
p211
I622
sVunfortun
p212
I367
sVdress
p213
I83
sVlamb
p214
I494
sVhuge
p215
I84
sVcours
p216
I85
sVend
p217
I86
sVsit
p218
I495
sVrather
p219
I88
sVanoth
p220
I89
sVcomfort
p221
I90
sVwrite
p222
I496
sValway
p223
I497
sVhot
p224
I91
sVanyon
p225
I499
sVdisappoint
p226
I92
sVsimpl
p227
I93
sVpizza
p228
I94
sVservic good
p229
I934
sVsandwich
p230
I95
sVokay
p231
I96
sVrude
p232
I97
sVmay
p233
I503
sVwatch
p234
I504
sVchines
p235
I98
sVspot
p236
I505
sVwrong
p237
I99
sVbirthday
p238
I507
sVbeauti
p239
I100
sVtaco
p240
I509
sVdate
p241
I510
sVaverag
p242
I101
sVman
p243
I511
sVtomato
p244
I512
sVshort
p245
I102
sVcrepe
p246
I513
sVqualiti food
p247
I918
sVhappi
p248
I569
sVlight
p249
I514
sVcounter
p250
I515
sVfavorit
p251
I516
sVgreet
p252
I103
sVissu
p253
I517
sVgreen
p254
I104
sVwaitress
p255
I562
sVpay
p256
I106
sVworst
p257
I107
sVveggi
p258
I563
sVegg
p259
I109
sVorder
p260
I110
sVpatio
p261
I111
sVwine
p262
I112
sVhelp
p263
I113
sVrock bottom
p264
I929
sVmove
p265
I521
sVpizza place
p266
I908
sVsoon
p267
I114
sVisnt
p268
I115
sVsoggi
p269
I522
sVcold
p270
I523
sVstill
p271
I524
sVperfect
p272
I525
sVstyle
p273
I116
sVgroup
p274
I526
sVthank
p275
I527
sVgave us
p276
I858
sVsunday
p277
I498
sVlot
p278
I768
sVplace go
p279
I911
sVlate
p280
I117
sVfelt like
p281
I843
sVdelici
p282
I118
sVcool
p283
I420
sVmight
p284
I119
sVgood place
p285
I865
sVgood
p286
I120
sVreturn
p287
I121
sVfood
p288
I122
sVmert
p289
I756
sVoveral
p290
I530
sVye
p291
I123
sVdont think
p292
I835
sVmention
p293
I531
sVinstead
p294
I501
sVfront
p295
I533
sVcomplain
p296
I124
sVbread
p297
I125
sVwont
p298
I535
sVchoic
p299
I126
sVsomewher
p300
I536
sVmeat
p301
I127
sVanyth
p302
I538
sVmeatbal
p303
I592
sValway good
p304
I808
sVlevel
p305
I422
sVoliv
p306
I539
sVauthent
p307
I128
sVspecial occas
p308
I938
sVeasili
p309
I129
sVroast
p310
I130
sVrock
p311
I540
sVfound
p312
I131
sVwent
p313
I132
sVburgh
p314
I541
sVcornbread
p315
I133
sVmean
p316
I134
sVrealli like
p317
I921
sVfish
p318
I135
sVhard
p319
I136
sVidea
p320
I137
sVrealli
p321
I138
sVowner
p322
I568
sVfinish
p323
I694
sVexpect
p324
I140
sVyear
p325
I543
sVgirl
p326
I544
sVthing
p327
I557
sVsaturday
p328
I141
sVspecial
p329
I545
sVplace get
p330
I910
sVcocktail
p331
I502
sVitem
p332
I424
sVmiss
p333
I142
sVeveri time
p334
I839
sVstuf
p335
I547
sVgot
p336
I143
sVred
p337
I548
sVfood great
p338
I850
sVdrink
p339
I696
sVinsid
p340
I549
sVlook like
p341
I890
sVsouthern
p342
I550
sVfriday
p343
I144
sVdiffer
p344
I145
sVpub
p345
I40
sVgreasi
p346
I41
sVpleasant
p347
I148
sVquick
p348
I425
sVreason
p349
I149
sVbase
p350
I150
sVbeliev
p351
I151
sVrealli good
p352
I920
sVput
p353
I50
sVorder chicken
p354
I904
sVguy
p355
I426
sVcard
p356
I552
sVcare
p357
I553
sVate
p358
I154
sVdont get
p359
I832
sVattent
p360
I508
sVdefinit go
p361
I827
sVcould
p362
I555
sVmac
p363
I506
sVkeep
p364
I556
sVtakeout
p365
I155
sVturn
p366
I87
sVamerican
p367
I156
sVplace
p368
I558
sVpepperoni
p369
I559
sVoutsid
p370
I560
sVenough
p371
I653
sVcook perfectli
p372
I822
sVloud
p373
I157
sVthink
p374
I561
sVfrequent
p375
I105
sVfirst
p376
I108
sVorigin
p377
I564
sVpleas
p378
I428
sVdine
p379
I158
sVdont
p380
I159
sVfeel
p381
I160
sVnext time
p382
I899
sVqualiti
p383
I565
sVnumber
p384
I161
sVone
p385
I566
sValreadi
p386
I162
sVdone
p387
I163
sVlong
p388
I567
sVbland
p389
I164
sVhorribl
p390
I165
sVthick
p391
I166
sVagre
p392
I167
sVfantast
p393
I168
sVfanci
p394
I169
sVsize
p395
I571
sVtake
p396
I606
sVguess
p397
I170
sVpretti good
p398
I915
sVspinach
p399
I171
sVtop
p400
I172
sVperfectli
p401
I574
sVbeer select
p402
I811
sVsometim
p403
I173
sVleast
p404
I174
sVbroccoli
p405
I700
sVciti
p406
I575
sVgreen bean
p407
I871
sVton
p408
I175
sVbartend
p409
I577
sVdraft
p410
I576
sVpancak
p411
I185
sVkid
p412
I176
sVive tri
p413
I882
sVbanana
p414
I177
sVstore
p415
I178
sVlow
p416
I767
sVoption
p417
I179
sVespeci
p418
I200
sVpittsburgh
p419
I582
sVseason
p420
I583
sVhotel
p421
I181
sVpark
p422
I182
sVtook
p423
I183
sVpart
p424
I184
sVmostli
p425
I584
sVreview
p426
I652
sVhonestli
p427
I585
sVthai
p428
I586
sVexactli
p429
I587
sVwhite
p430
I578
sVboyfriend
p431
I588
sVserv
p432
I589
sVchef
p433
I186
sVkind
p434
I187
sVyum
p435
I620
sVprovid
p436
I188
sVgotten
p437
I189
sVdont like
p438
I834
sVcapit grill
p439
I817
sVcrave
p440
I190
sVfinal
p441
I579
sVmatter
p442
I191
sVcost
p443
I431
sVfriend
p444
I580
sVsweet potato
p445
I941
sVminut
p446
I192
sVshrimp
p447
I752
sVbetter
p448
I797
sVatmospher
p449
I193
sVterribl
p450
I590
sVwasnt
p451
I194
sVslaw
p452
I591
sVfast food
p453
I840
sVmind
p454
I195
sVanywher
p455
I280
sVtonight
p456
I593
sVsay
p457
I594
sVbuy
p458
I771
sVshadysid
p459
I595
sVdeliv
p460
I296
sVclose
p461
I596
sVseen
p462
I197
sVseem
p463
I198
sVsaw
p464
I599
sVjuici
p465
I199
sVsat
p466
I600
sVthought
p467
I704
sVmin
p468
I602
sVthat
p469
I581
sVcalamari
p470
I631
sVnote
p471
I604
sValso
p472
I201
sVwithout
p473
I705
sVbuild
p474
I202
sVcream
p475
I793
sVcombin
p476
I518
sVdont know
p477
I833
sVnoth
p478
I607
sVeven
p479
I203
sVplay
p480
I204
sVsure
p481
I609
sVplenti
p482
I205
sVthough
p483
I206
sVprice
p484
I611
sVknew
p485
I612
sVsalmon
p486
I207
sVwould definit
p487
I950
sVpaid
p488
I362
sVregular
p489
I208
sVmouth
p490
I209
sVplan
p491
I210
sVeaten
p492
I211
sVcharg
p493
I212
sVamaz
p494
I213
sVtradit
p495
I214
sVservic great
p496
I935
sVhot dog
p497
I875
sVgyro
p498
I614
sVseafood
p499
I615
sVlater
p500
I616
sVcover
p501
I215
sVdog
p502
I216
sVmartini
p503
I519
sVget food
p504
I859
sVtalk
p505
I520
sVclean
p506
I217
sVadd
p507
I717
sVbun
p508
I773
sVusual
p509
I707
sVsalt
p510
I621
sVsometh
p511
I259
sVawesom
p512
I218
sVshop
p513
I624
sVminut later
p514
I897
sVshow
p515
I625
sVgerman
p516
I626
sVabl
p517
I33
sVcheap
p518
I627
sVanyway
p519
I628
sVbring
p520
I629
sVchicken
p521
I630
sVfine
p522
I220
sVfind
p523
I221
sVstaff
p524
I632
sVtoast
p525
I222
sVabsolut
p526
I223
sVslow
p527
I633
sVlocat
p528
I634
sVpretti
p529
I224
sVmusic
p530
I380
sVmenu
p531
I225
sVexplain
p532
I226
sVless
p533
I710
sVrestaur
p534
I227
sValso order
p535
I807
sVtast like
p536
I942
sVbusi
p537
I228
sVsuppos
p538
I468
sVlast night
p539
I883
sVrich
p540
I229
sVmoney
p541
I711
sVlook good
p542
I889
sVrice
p543
I230
sVlocal
p544
I637
sVhope
p545
I638
sVplate
p546
I231
sVweve
p547
I232
sVhit
p548
I233
sVget
p549
I639
sVcole slaw
p550
I819
sVstop
p551
I234
sVbest pizza
p552
I814
sVjoint
p553
I640
sVbean
p554
I641
sVmade
p555
I778
sVwerent
p556
I642
sVpasta trio
p557
I907
sVds
p558
I235
sVtruli
p559
I643
sVbar
p560
I236
sVim sure
p561
I877
sVyour look
p562
I955
sVplace great
p563
I912
sVsauc
p564
I238
sVtwice
p565
I239
sVbad
p566
I240
sVstuff
p567
I644
sVoverpr
p568
I551
sVsteak
p569
I241
sVhusband
p570
I646
sVset
p571
I242
sVfigur
p572
I251
sVnoodl
p573
I647
sVfair
p574
I243
sVyear ago
p575
I954
sVapolog
p576
I648
sVseat
p577
I649
sVcelebr
p578
I409
sVsee
p579
I244
sVtender
p580
I245
sVreserv
p581
I246
sVsport
p582
I650
sVgood servic
p583
I866
sVbest
p584
I247
sVwonder
p585
I651
sVsaid
p586
I248
sVgreat food
p587
I868
sVaway
p588
I250
sVbehind
p589
I180
sVoutstand
p590
I252
sVweird
p591
I654
sVmac chees
p592
I892
sVexperi
p593
I253
sVyoull
p594
I655
sVacross
p595
I656
sVside
p596
I687
sVappreci
p597
I255
sVjob
p598
I657
sVentir
p599
I658
sVmain cours
p600
I893
sVcome
p601
I659
sVprice reason
p602
I917
sVseem like
p603
I931
sVkitchen
p604
I256
sVwater
p605
I442
sVlast
p606
I258
sVsever time
p607
I936
sVhowev
p608
I260
sVwed
p609
I714
sVquiet
p610
I661
sVetc
p611
I662
sVpita
p612
I261
sVmani
p613
I663
sVfri chicken
p614
I854
sVwhole
p615
I262
sVcozi
p616
I444
sVsimpli
p617
I263
sVpoint
p618
I264
sVwall
p619
I664
sVsweet
p620
I265
sVfood servic
p621
I851
sVcrispi
p622
I266
sVarriv
p623
I665
sVwalk
p624
I666
sVscallop
p625
I267
sVitalian food
p626
I878
sVsecond
p627
I667
sVturkey
p628
I668
sVquit
p629
I669
sVlidia
p630
I670
sVbeef
p631
I268
sVmake sure
p632
I894
sVdecent
p633
I672
sVfri
p634
I269
sVcoupl
p635
I671
sVthree
p636
I270
sVempti
p637
I271
sVsaturday night
p638
I930
sVbeer
p639
I272
sVmuch
p640
I273
sVtreat
p641
I673
sVinterest
p642
I274
sVbasic
p643
I275
sVaddit
p644
I660
sVravioli
p645
I675
sVtini
p646
I276
sVpm
p647
I277
sVlife
p648
I278
sVlast time
p649
I884
sVmushroom
p650
I279
sVwant go
p651
I947
sVmine
p652
I196
sVpricey
p653
I281
sVunderstand
p654
I282
sVtogeth
p655
I677
sVchili
p656
I283
sVmediocr
p657
I528
sVpresent
p658
I679
sVsound
p659
I680
sVingredi
p660
I681
sVmain
p661
I529
sVsoba
p662
I15
sVhostess
p663
I285
sVsolid
p664
I286
sVplain
p665
I682
sVservic
p666
I287
sVbill
p667
I288
sVcash
p668
I683
sVn
p669
I289
sVnear
p670
I290
sVoccas
p671
I291
sVeveryon
p672
I292
sVpack
p673
I293
sVive
p674
I685
sVfrench fri
p675
I852
sVfri rice
p676
I855
sVreadi
p677
I295
sVsushi
p678
I64
sVneed
p679
I597
sVcant
p680
I297
sVim
p681
I298
sVstaff friendli
p682
I940
sVrib
p683
I299
sVid
p684
I300
sVsever
p685
I301
sVcollard green
p686
I820
sVdecor
p687
I302
sVwelcom
p688
I688
sVopen
p689
I570
sVfrench toast
p690
I853
sVreceiv
p691
I303
sVsuggest
p692
I304
sVmake
p693
I305
sVbowl
p694
I690
sVwait minut
p695
I945
sVcheck
p696
I691
sVsplit
p697
I306
sVfill
p698
I692
sVcomplet
p699
I307
sVweek
p700
I693
sVwould like
p701
I952
sVoil
p702
I139
sVpho
p703
I695
sVone best
p704
I902
sVblue
p705
I308
sVupon
p706
I697
sVsomeon
p707
I698
sVcoffe
p708
I699
sVhand
p709
I309
sVfairli
p710
I310
sVwould go
p711
I951
sVgarlic
p712
I311
sVrefil
p713
I312
sVextrem
p714
I452
sVtuna
p715
I314
sVchang
p716
I453
sVrecent
p717
I316
sVbutter
p718
I317
sVkept
p719
I318
sVentre
p720
I319
sVlunch
p721
I702
sVgive place
p722
I860
sVwell
p723
I703
sVone favorit
p724
I903
sVpickl
p725
I320
sVperson
p726
I321
sVcustom servic
p727
I825
sVchees
p728
I322
sVexpens
p729
I323
sVcasbah
p730
I324
sVchoos
p731
I706
sVive never
p732
I881
sVeveryth
p733
I325
sVtast
p734
I326
sVspend
p735
I327
sVleft
p736
I328
sVsummer
p737
I708
sVhome fri
p738
I874
sVoutdoor
p739
I709
sVdidnt even
p740
I829
sVcharlott
p741
I329
sVtip
p742
I393
sVhalf
p743
I532
sVambianc
p744
I330
sVrest
p745
I712
sVfriendli servic
p746
I857
sVflavor
p747
I713
sVyet
p748
I331
sVlike place
p749
I885
sVcut
p750
I332
sVeasi
p751
I333
sVcup
p752
I334
sVplace eat
p753
I909
sVreason price
p754
I924
sVburrito
p755
I701
sVlittl
p756
I716
sVday
p757
I534
sVcollard
p758
I335
sVspring roll
p759
I939
sVok
p760
I750
sVels
p761
I336
sVsave
p762
I337
sVbottl
p763
I770
sVgave
p764
I338
sVreal
p765
I294
sVcomplaint
p766
I339
sVaround
p767
I719
sVmayb
p768
I340
sVread
p769
I720
sVbig
p770
I341
sVladi
p771
I722
sVpiec
p772
I723
sVdark
p773
I724
sVgame
p774
I342
sVrealiz
p775
I725
sVfive
p776
I726
sVknow
p777
I727
sVmom
p778
I728
sVworld
p779
I729
sVbit
p780
I343
sVfood came
p781
I847
sVname
p782
I537
sVcrisp
p783
I730
sVlike
p784
I731
sVonion
p785
I732
sVincred
p786
I733
sVserver
p787
I734
sVeither
p788
I735
sVnight
p789
I344
sVsoft
p790
I736
sVmanag
p791
I737
sVitalian
p792
I738
sVoliv garden
p793
I901
sVright
p794
I345
sVold
p795
I346
sVoften
p796
I347
sVcrowd
p797
I348
sVcuisin
p798
I349
sVspring
p799
I350
sVback
p800
I352
sVoffer
p801
I603
sVfavorit place
p802
I841
sVsampl
p803
I353
sVhome
p804
I740
sVsurpris
p805
I354
sVtextur
p806
I608
sVslice
p807
I741
sVchocol
p808
I355
sVmood
p809
I742
sVbottom
p810
I356
sVavoid
p811
I744
sVnormal
p812
I610
sVdefinit
p813
I745
sVice
p814
I357
sVwine list
p815
I949
sVservic alway
p816
I932
sVlarg
p817
I358
sVmarket
p818
I461
sVgreat servic
p819
I870
sVplu
p820
I359
sVcrab cake
p821
I824
sVrun
p822
I360
sVcorn
p823
I361
sVgo back
p824
I862
sVbuffet
p825
I613
sValthough
p826
I748
sVfriday night
p827
I856
sVpasta
p828
I749
sVsuper
p829
I363
sVtri place
p830
I944
sVcant wait
p831
I816
sVrare
p832
I475
sVdiner
p833
I364
sVwouldnt
p834
I365
sVoh
p835
I751
sVcurri
p836
I366
sVrestaur week
p837
I927
sVmeal
p838
I254
sVchop
p839
I753
sVdinner
p840
I368
sVplace like
p841
I913
sVafternoon
p842
I369
sVdrink order
p843
I836
sVgive star
p844
I861
sVpretti much
p845
I916
sVtheyr
p846
I755
sVfood good
p847
I849
sVwithin
p848
I370
sVtofu
p849
I371
sVdue
p850
I757
sVwant tri
p851
I948
sVdoesnt
p852
I758
sVeven though
p853
I838
sVstrip
p854
I542
sVwrap
p855
I372
sVuptown
p856
I760
sVcouldnt
p857
I761
sVyour
p858
I762
sVdeal
p859
I373
sVarea
p860
I763
sVthere
p861
I764
sVfast
p862
I374
sVcustom
p863
I375
sVavail
p864
I376
sVstart
p865
I765
sVappl
p866
I766
sVinclud
p867
I377
sVway
p868
I378
sVforward
p869
I379
sVmorn
p870
I249
sVcame back
p871
I815
sVdeliveri
p872
I769
sVhead
p873
I381
sVmedium
p874
I382
sVfilet
p875
I383
sVhappen
p876
I792
sVbite
p877
I573
sVnoth special
p878
I900
sVspici
p879
I772
sVhear
p880
I384
sVline
p881
I385
sVstand
p882
I754
sVtrue
p883
I386
sVeat
p884
I774
sVrealli enjoy
p885
I919
sVspice
p886
I775
sVpull
p887
I776
sVrush
p888
I777
sVimmedi
p889
I674
sVdirti
p890
I779
sVconsist
p891
I387
sVpossibl
p892
I780
sVveget
p893
I781
sVwish
p894
I782
sVwife
p895
I803
sVus
p896
I388
sVmash potato
p897
I896
sVrecommend place
p898
I925
sVbbq
p899
I676
sVcake
p900
I783
sVlobster
p901
I739
sVproblem
p902
I784
sVquickli
p903
I785
sVgone
p904
I786
sVtrio
p905
I389
sVtasti
p906
I787
sVad
p907
I788
sVfood delici
p908
I848
sVclassic
p909
I390
sVrequest
p910
I617
sVservic food
p911
I933
sVpie
p912
I789
sVdrive
p913
I618
sVaw
p914
I790
sVrestaur pittsburgh
p915
I926
sVgirlfriend
p916
I791
sVmash
p917
I804
sVtrip
p918
I391
sVorder food
p919
I905
sVprobabl
p920
I601
sVhappi hour
p921
I872
sVlove place
p922
I891
sVgood thing
p923
I867
sVfloor
p924
I392
sVexcel
p925
I237
sVevent
p926
I794
sVlettuc
p927
I759
sVother
p928
I795
sVice cream
p929
I876
sVrememb
p930
I796
sVvarieti
p931
I721
sVwing
p932
I619
sVsmell
p933
I394
sVroll
p934
I395
sVnice
p935
I396
sVpoor
p936
I798
sVbest part
p937
I813
sVstar
p938
I799
sVfelt
p939
I397
sVstay
p940
I800
sVrealli nice
p941
I922
sVconsid
p942
I398
sVfresh
p943
I801
sVweekend
p944
I399
sVago
p945
I400
sVlonger
p946
I401
sVyelp
p947
I802
sVpotato
p948
I402
sVspace
p949
I546
sVhungri
p950
I403
sVportion
p951
I805
sVcame
p952
I404
sVgo wrong
p953
I863
sVtime
p954
I405
sVserious
p955
I406
sVbuffalo
p956
I407
s.