(dp0
S'good food'
p1
I0
sS'chain'
p2
I18
sS'really good'
p3
I2
sS'place would'
p4
I3
sS'lack'
p5
I4
sS'hot'
p6
I5
sS'four'
p7
I6
sS'one thing'
p8
I7
sS'manager'
p9
I8
sS'asian'
p10
I9
sS'capital grille'
p11
I10
sS'go'
p12
I11
sS'hate'
p13
I13
sS'seemed'
p14
I15
sS'make sure'
p15
I93
sS'wine list'
p16
I787
sS'certainly'
p17
I17
sS'chinese'
p18
I1
sS'disgusting'
p19
I19
sS'finally'
p20
I20
sS'big fan'
p21
I21
sS'dressing'
p22
I22
sS'sorry'
p23
I23
sS'friendly'
p24
I25
sS'sent'
p25
I26
sS'definitely recommend'
p26
I27
sS'staff always'
p27
I28
sS'woman'
p28
I29
sS'years ago'
p29
I30
sS'worse'
p30
I31
sS'made'
p31
I862
sS'returning'
p32
I207
sS'far'
p33
I33
sS'dessert'
p34
I34
sS'mediocre best'
p35
I35
sS'choice'
p36
I366
sS'three stars'
p37
I36
sS'worst'
p38
I37
sS'awful'
p39
I39
sS'fan'
p40
I40
sS'minute'
p41
I41
sS'cool'
p42
I42
sS'entire'
p43
I43
sS'school'
p44
I44
sS'hour'
p45
I45
sS'desserts'
p46
I46
sS'die'
p47
I47
sS'list'
p48
I48
sS'friendly staff'
p49
I303
sS'try'
p50
I51
sS'would definitely'
p51
I625
sS'walked'
p52
I933
sS'get food'
p53
I898
sS'right away'
p54
I53
sS'small'
p55
I54
sS'guy'
p56
I55
sS'spent'
p57
I692
sS'enjoy'
p58
I57
sS'pork'
p59
I58
sS'says'
p60
I59
sS'come back'
p61
I865
sS'tea'
p62
I61
sS'bacon'
p63
I62
sS'japanese'
p64
I390
sS'sign'
p65
I64
sS'past'
p66
I65
sS'dish'
p67
I236
sS'second'
p68
I67
sS'street'
p69
I68
sS'one star'
p70
I69
sS'fast food'
p71
I70
sS'eating'
p72
I794
sS'n'
p73
I632
sS'casual'
p74
I73
sS'beer selection'
p75
I74
sS'drinks'
p76
I75
sS'even'
p77
I444
sS'sausage'
p78
I76
sS'chicken salad'
p79
I77
sS'sub'
p80
I78
sS'cooking'
p81
I80
sS'crust'
p82
I81
sS'find'
p83
I489
sS'waiting'
p84
I84
sS'indian'
p85
I85
sS'shared'
p86
I87
sS'pad thai'
p87
I88
sS'ever'
p88
I89
sS'place great'
p89
I90
sS'filled'
p90
I91
sS'told'
p91
I404
sS'fish sandwich'
p92
I92
sS'long time'
p93
I823
sS'full'
p94
I94
sS'cozy'
p95
I95
sS'pancakes'
p96
I96
sS'never'
p97
I97
sS'french'
p98
I98
sS'service horrible'
p99
I143
sS'potato pancakes'
p100
I636
sS'busy'
p101
I493
sS'let'
p102
I102
sS'mac cheese'
p103
I103
sS'good though'
p104
I104
sS'along'
p105
I105
sS'quite'
p106
I331
sS'saturday night'
p107
I107
sS'wait'
p108
I108
sS'box'
p109
I615
sS'great'
p110
I110
sS'kids'
p111
I111
sS'daughter'
p112
I112
sS'perfectly cooked'
p113
I113
sS'items'
p114
I635
sS'employees'
p115
I115
sS'changed'
p116
I116
sS'experience'
p117
I118
sS'credit'
p118
I119
sS'amount'
p119
I120
sS'always friendly'
p120
I121
sS'pick'
p121
I123
sS'usually'
p122
I124
sS'opinion'
p123
I125
sS'would say'
p124
I126
sS'makes'
p125
I127
sS'options'
p126
I128
sS'cooked'
p127
I934
sS'love'
p128
I130
sS'family'
p129
I131
sS'extra'
p130
I16
sS'prefer'
p131
I132
sS'highly'
p132
I99
sS'brought'
p133
I133
sS'ask'
p134
I334
sS'duck'
p135
I135
sS'total'
p136
I136
sS'standing'
p137
I137
sS'use'
p138
I138
sS'takes'
p139
I140
sS'would'
p140
I141
sS'food pretty'
p141
I142
sS'hungry'
p142
I771
sS'visit'
p143
I144
sS'charge'
p144
I139
sS'sports'
p145
I146
sS'creamy'
p146
I244
sS'live'
p147
I148
sS'call'
p148
I149
sS'crab'
p149
I150
sS'recommend'
p150
I151
sS'taken'
p151
I152
sS'greasy'
p152
I365
sS'type'
p153
I154
sS'tell'
p154
I155
sS'today'
p155
I156
sS'door'
p156
I157
sS'pretty'
p157
I501
sS'stay away'
p158
I159
sS'evening'
p159
I649
sS'started'
p160
I160
sS'share'
p161
I161
sS'local'
p162
I503
sS'glass'
p163
I162
sS'really great'
p164
I163
sS'warm'
p165
I164
sS'beers'
p166
I165
sS'excellent'
p167
I384
sS'olive'
p168
I166
sS'ok'
p169
I806
sS'next door'
p170
I679
sS'glad'
p171
I169
sS'must'
p172
I24
sS'town'
p173
I170
sS'grill'
p174
I32
sS'none'
p175
I171
sS'bartender'
p176
I172
sS'room'
p177
I173
sS'salad'
p178
I174
sS'shame'
p179
I648
sS'car'
p180
I176
sS'work'
p181
I177
sS'soul'
p182
I178
sS'worth'
p183
I179
sS'reviews'
p184
I180
sS'soup'
p185
I181
sS'anywhere'
p186
I38
sS'bar area'
p187
I183
sS'making'
p188
I185
sS'good nothing'
p189
I114
sS'corned beef'
p190
I187
sS'beautiful'
p191
I129
sS'give'
p192
I189
sS'awesome'
p193
I191
sS'food took'
p194
I192
sS'high'
p195
I194
sS'heard'
p196
I195
sS'way'
p197
I842
sS'something'
p198
I188
sS'want'
p199
I197
sS'drive'
p200
I891
sS'keep'
p201
I685
sS'onions'
p202
I200
sS'garden'
p203
I201
sS'usually get'
p204
I202
sS'huge'
p205
I203
sS'end'
p206
I204
sS'sit'
p207
I205
sS'rather'
p208
I206
sS'sitting'
p209
I335
sS'located'
p210
I209
sS'amazing'
p211
I210
sS'party'
p212
I668
sS'place'
p213
I348
sS'establishment'
p214
I212
sS'walked away'
p215
I213
sS'pizza'
p216
I214
sS'service slow'
p217
I293
sS'sandwich'
p218
I215
sS'okay'
p219
I216
sS'tried'
p220
I217
sS'rude'
p221
I218
sS'mess'
p222
I318
sS'overall'
p223
I796
sS'dive'
p224
I221
sS'sour'
p225
I182
sS'southern'
p226
I327
sS'drive thru'
p227
I285
sS'mac'
p228
I224
sS'birthday'
p229
I347
sS'coming'
p230
I226
sS'waste'
p231
I611
sS'appetizer'
p232
I403
sS'authentic'
p233
I227
sS'tomato'
p234
I228
sS'short'
p235
I229
sS'remember'
p236
I230
sS'crowded'
p237
I231
sS'maybe'
p238
I409
sS'greek'
p239
I233
sS'green'
p240
I234
sS'waitress'
p241
I351
sS'overcooked'
p242
I448
sS'every'
p243
I238
sS'egg'
p244
I239
sS'order'
p245
I240
sS'wine'
p246
I122
sS'soggy'
p247
I241
sS'waste time'
p248
I242
sS'bowl'
p249
I663
sS'years'
p250
I245
sS'went lunch'
p251
I246
sS'course'
p252
I247
sS'attitude'
p253
I248
sS'mistake'
p254
I641
sS'including'
p255
I249
sS'looks'
p256
I250
sS'mentioned'
p257
I252
sS'cold'
p258
I254
sS'still'
p259
I255
sS'style'
p260
I256
sS'group'
p261
I257
sS'gave us'
p262
I258
sS'appetizers'
p263
I259
sS'expectations'
p264
I260
sS'actually'
p265
I261
sS'better'
p266
I262
sS'felt like'
p267
I906
sS'quite good'
p268
I263
sS'spot'
p269
I222
sS'visiting'
p270
I543
sS'happened'
p271
I266
sS'coffee'
p272
I267
sS'good'
p273
I268
sS'return'
p274
I269
sS'food'
p275
I270
sS'well worth'
p276
I271
sS'delivered'
p277
I914
sS'lunch'
p278
I273
sS'two stars'
p279
I275
sS'half'
p280
I276
sS'front'
p281
I277
sS'day'
p282
I279
sS'bread'
p283
I280
sS'several'
p284
I669
sS'meat'
p285
I282
sS'worst service'
p286
I634
sS'potatoes'
p287
I168
sS'year old'
p288
I284
sS'food ever'
p289
I637
sS'stopped'
p290
I286
sS'rock'
p291
I287
sS'found'
p292
I288
sS'went'
p293
I289
sS'side'
p294
I646
sS'mean'
p295
I291
sS'heavy'
p296
I292
sS'everyone'
p297
I294
sS'another'
p298
I666
sS'needless'
p299
I296
sS'house'
p300
I297
sS'fish'
p301
I298
sS'hard'
p302
I299
sS'ambiance'
p303
I300
sS'idea'
p304
I301
sS'potato salad'
p305
I302
sS'food bad'
p306
I49
sS'sports bar'
p307
I304
sS'entree'
p308
I306
sS'expect'
p309
I883
sS'year'
p310
I307
sS'girl'
p311
I308
sS'chain restaurant'
p312
I309
sS'saturday'
p313
I310
sS'special'
p314
I907
sS'really'
p315
I311
sS'large'
p316
I312
sS'never came'
p317
I313
sS'sent back'
p318
I940
sS'open'
p319
I658
sS'since'
p320
I316
sS'looking'
p321
I317
sS'may'
p322
I219
sS'fried rice'
p323
I319
sS'grits'
p324
I320
sS'got'
p325
I321
sS'issue'
p326
I324
sS'red'
p327
I325
sS'food great'
p328
I326
sS'go way'
p329
I730
sS'also good'
p330
I86
sS'friday'
p331
I328
sS'little'
p332
I369
sS'free'
p333
I330
sS'standard'
p334
I106
sS'quick'
p335
I332
sS'reason'
p336
I333
sS'usual'
p337
I701
sS'put'
p338
I134
sS'wanted'
p339
I336
sS'card'
p340
I337
sS'care'
p341
I153
sS'ate'
p342
I338
sS'waiter'
p343
I339
sS'could'
p344
I340
sS'area'
p345
I836
sS'sub par'
p346
I342
sS'days'
p347
I193
sS'times'
p348
I345
sS'thing'
p349
I346
sS'chicken'
p350
I488
sS'would go'
p351
I680
sS'yum'
p352
I147
sS'garlic'
p353
I681
sS'think'
p354
I350
sS'south'
p355
I235
sS'first'
p356
I352
sS'cheese'
p357
I353
sS'already'
p358
I354
sS'went back'
p359
I355
sS'feel'
p360
I356
sS'next time'
p361
I357
sS'never go'
p362
I358
sS'fancy'
p363
I359
sS'one'
p364
I360
sS'lettuce'
p365
I361
sS'done'
p366
I362
sS'long'
p367
I839
sS'delicious'
p368
I364
sS'really wanted'
p369
I894
sS'quality'
p370
I314
sS'mix'
p371
I918
sS'size'
p372
I367
sS'take'
p373
I731
sS'city'
p374
I368
sS'given'
p375
I329
sS'management'
p376
I370
sS'service'
p377
I371
sS'taste like'
p378
I272
sS'even better'
p379
I373
sS'top'
p380
I374
sS'took order'
p381
I375
sS'least'
p382
I376
sS'needed'
p383
I378
sS'white'
p384
I380
sS'banana'
p385
I381
sS'friend'
p386
I382
sS'poor service'
p387
I383
sS'go wrong'
p388
I385
sS'pittsburgh'
p389
I386
sS'special occasion'
p390
I387
sS'serve'
p391
I388
sS'took'
p392
I389
sS'ridiculous'
p393
I12
sS'burrito'
p394
I688
sS'thai'
p395
I394
sS'believe'
p396
I395
sS'boyfriend'
p397
I397
sS'chef'
p398
I398
sS'kind'
p399
I399
sS'late night'
p400
I400
sS'general tso'
p401
I66
sS'gotten'
p402
I402
sS'quality food'
p403
I682
sS'next day'
p404
I305
sS'seated'
p405
I405
sS'definitely go'
p406
I406
sS'game'
p407
I742
sS'cost'
p408
I407
sS'supposed'
p409
I556
sS'sweet potato'
p410
I410
sS'would never'
p411
I412
sS'charlotte'
p412
I413
sS'tasted'
p413
I414
sS'outstanding'
p414
I415
sS'slaw'
p415
I416
sS'first time'
p416
I417
sS'mind'
p417
I418
sS'juicy'
p418
I697
sS'sad'
p419
I419
sS'tonight'
p420
I420
sS'talking'
p421
I421
sS'say'
p422
I422
sS'spicy'
p423
I845
sS'food came'
p424
I425
sS'need'
p425
I426
sS'seen'
p426
I427
sS'breakfast'
p427
I428
sS'mins'
p428
I429
sS'saw'
p429
I430
sS'orders'
p430
I431
sS'sat'
p431
I432
sS'nights'
p432
I433
sS'dishes'
p433
I434
sS'min'
p434
I690
sS'check'
p435
I895
sS'offer'
p436
I848
sS'able'
p437
I438
sS'also'
p438
I439
sS'recommended'
p439
I440
sS'wait go'
p440
I441
sS'packed'
p441
I520
sS'excellent food'
p442
I443
sS'glasses'
p443
I820
sS'added'
p444
I56
sS'sunday brunch'
p445
I253
sS'though'
p446
I446
sS'park'
p447
I447
sS'price'
p448
I792
sS'salmon'
p449
I449
sS'buffalo chicken'
p450
I450
sS'buffet'
p451
I451
sS'leave'
p452
I452
sS'regular'
p453
I453
sS'terrible service'
p454
I454
sS'eaten'
p455
I822
sS'nothing'
p456
I455
sS'extremely'
p457
I456
sS'forever'
p458
I457
sS'looks like'
p459
I699
sS'never disappointed'
p460
I459
sS'especially'
p461
I460
sS'hot dog'
p462
I461
sS'gyro'
p463
I462
sS'seafood'
p464
I463
sS'later'
p465
I464
sS'dirty'
p466
I875
sS'dog'
p467
I465
sS'martini'
p468
I466
sS'looked'
p469
I467
sS'lots'
p470
I544
sS'part'
p471
I391
sS'best thing'
p472
I265
sS'clean'
p473
I471
sS'occasion'
p474
I920
sS'charged'
p475
I473
sS'review'
p476
I392
sS'fact'
p477
I79
sS'shop'
p478
I475
sS'rating'
p479
I295
sS'atmosphere'
p480
I477
sS'selection'
p481
I478
sS'particularly'
p482
I479
sS'show'
p483
I480
sS'german'
p484
I481
sS'casbah'
p485
I482
sS'time went'
p486
I483
sS'cheap'
p487
I484
sS'bring'
p488
I486
sS'good service'
p489
I52
sS'fine'
p490
I232
sS'enjoyed'
p491
I82
sS'staff'
p492
I490
sS'egg roll'
p493
I491
sS'waited'
p494
I492
sS'slow'
p495
I101
sS'based'
p496
I494
sS'asked could'
p497
I850
sS'menu'
p498
I495
sS'enough'
p499
I549
sS'texture'
p500
I498
sS'going'
p501
I499
sS'black'
p502
I500
sS'rich'
p503
I158
sS'rice'
p504
I502
sS'feel like'
p505
I184
sS'hope'
p506
I504
sS'plate'
p507
I506
sS'hit'
p508
I507
sS'get'
p509
I322
sS'stop'
p510
I220
sS'needless say'
p511
I508
sS'best pizza'
p512
I509
sS'truly'
p513
I315
sS'food quality'
p514
I828
sS'ones'
p515
I510
sS'stars'
p516
I511
sS'perfection'
p517
I512
sS'new'
p518
I513
sS'chips'
p519
I514
sS'place go'
p520
I515
sS'gem'
p521
I516
sS'bar'
p522
I517
sS'places'
p523
I864
sS'greens'
p524
I518
sS'ended'
p525
I519
sS'twice'
p526
I521
sS'bad'
p527
I522
sS'stuff'
p528
I523
sS'wish'
p529
I866
sS'grilled'
p530
I525
sS'collard greens'
p531
I526
sS'last time'
p532
I527
sS'steak'
p533
I528
sS'husband'
p534
I530
sS'restaurants'
p535
I531
sS'set'
p536
I532
sS'french fries'
p537
I533
sS'see'
p538
I534
sS'decided'
p539
I535
sS'parking'
p540
I536
sS'close'
p541
I537
sS'noodles'
p542
I538
sS'flavor'
p543
I714
sS'best'
p544
I442
sS'chose'
p545
I541
sS'said'
p546
I542
sS'great food'
p547
I411
sS'super friendly'
p548
I468
sS'wow'
p549
I198
sS'give stars'
p550
I547
sS'outside'
p551
I497
sS'food terrible'
p552
I550
sS'closed'
p553
I552
sS'horrible'
p554
I553
sS'probably'
p555
I554
sS'thought would'
p556
I708
sS'across'
p557
I555
sS'meal'
p558
I811
sS'cajun'
p559
I557
sS'recently'
p560
I558
sS'around pm'
p561
I559
sS'customer service'
p562
I560
sS'however'
p563
I561
sS'took forever'
p564
I562
sS'job'
p565
I563
sS'must try'
p566
I564
sS'come'
p567
I565
sS'main course'
p568
I566
sS'kitchen'
p569
I567
sS'water'
p570
I290
sS'last'
p571
I569
sS'brown'
p572
I570
sS'restaurant'
p573
I630
sS'many'
p574
I573
sS'barely'
p575
I574
sS'hours'
p576
I568
sS'took minutes'
p577
I575
sS'etc'
p578
I577
sS'patrons'
p579
I578
sS'disappointment'
p580
I579
sS'credit card'
p581
I186
sS'whole'
p582
I581
sS'asked'
p583
I582
sS'comes'
p584
I583
sS'olive oil'
p585
I584
sS'cakes'
p586
I572
sS'tough'
p587
I586
sS'flavorless'
p588
I587
sS'point'
p589
I588
sS'simple'
p590
I589
sS'sweet'
p591
I590
sS'bad experience'
p592
I591
sS'others'
p593
I592
sS'top notch'
p594
I593
sS'walk'
p595
I594
sS'minutes later'
p596
I595
sS'happy hour'
p597
I644
sS'away'
p598
I545
sS'italian food'
p599
I596
sS'table'
p600
I597
sS'refill'
p601
I598
sS'sunday'
p602
I599
sS'considering'
p603
I600
sS'late'
p604
I601
sS'beef'
p605
I602
sS'bad food'
p606
I603
sS'decent'
p607
I604
sS'going back'
p608
I551
sS'quickly'
p609
I606
sS'taste'
p610
I889
sS'beer'
p611
I607
sS'much'
p612
I608
sS'excellent service'
p613
I609
sS'peppers'
p614
I610
sS'lovely'
p615
I344
sS'ravioli'
p616
I612
sS'bbq'
p617
I613
sS'pm'
p618
I614
sS'disappointed'
p619
I747
sS'lived'
p620
I616
sS'tasteless'
p621
I617
sS'turned'
p622
I618
sS'offered'
p623
I619
sS'cooked perfection'
p624
I620
sS'else'
p625
I621
sS'finished'
p626
I622
sS'prices'
p627
I623
sS'brunch'
p628
I14
sS'attentive'
p629
I624
sS'case'
p630
I548
sS'pleasantly surprised'
p631
I626
sS'main'
p632
I627
sS'soba'
p633
I60
sS'sauce'
p634
I264
sS'cash'
p635
I631
sS'choices'
p636
I72
sS'near'
p637
I633
sS'onion rings'
p638
I571
sS'fun'
p639
I100
sS'took long'
p640
I639
sS'vegetarian'
p641
I640
sS'wait staff'
p642
I274
sS'service great'
p643
I642
sS'almost'
p644
I643
sS'sushi'
p645
I645
sS'quiet'
p646
I647
sS'middle'
p647
I175
sS'someone'
p648
I208
sS'ready'
p649
I651
sS'overall good'
p650
I652
sS'seem'
p651
I653
sS'cuisine'
p652
I655
sS'decor'
p653
I223
sS'several times'
p654
I657
sS'french toast'
p655
I659
sS'perhaps'
p656
I660
sS'pay'
p657
I237
sS'make'
p658
I662
sS'waitresses'
p659
I243
sS'service excellent'
p660
I664
sS'clearly'
p661
I665
sS'par'
p662
I871
sS'also ordered'
p663
I667
sS'plates'
p664
I109
sS'gets'
p665
I281
sS'tomatoes'
p666
I670
sS'week'
p667
I671
sS'fairly'
p668
I672
sS'used'
p669
I673
sS'pho'
p670
I674
sS'got food'
p671
I675
sS'drink'
p672
I677
sS'upon'
p673
I678
sS'last night'
p674
I580
sS'hole wall'
p675
I50
sS'arrived'
p676
I349
sS'two'
p677
I145
sS'favorites'
p678
I683
sS'broccoli'
p679
I684
sS'butter'
p680
I686
sS'entrees'
p681
I687
sS'kept'
p682
I393
sS'cook'
p683
I689
sS'ingredients'
p684
I900
sS'well'
p685
I691
sS'food delicious'
p686
I323
sS'obviously'
p687
I693
sS'thought'
p688
I694
sS'person'
p689
I435
sS'without'
p690
I696
sS'bottle'
p691
I445
sS'slow service'
p692
I698
sS'food ordered'
p693
I458
sS'spend'
p694
I700
sS'left'
p695
I251
sS'things'
p696
I661
sS'egg rolls'
p697
I702
sS'outdoor'
p698
I703
sS'mom'
p699
I704
sS'less'
p700
I705
sS'generally'
p701
I902
sS'hands'
p702
I707
sS'liked'
p703
I585
sS'rest'
p704
I709
sS'everyone else'
p705
I711
sS'world'
p706
I745
sS'something else'
p707
I713
sS'yes'
p708
I539
sS'yet'
p709
I715
sS'tables'
p710
I716
sS'generous'
p711
I717
sS'cut'
p712
I718
sS'fried chicken'
p713
I719
sS'dining'
p714
I720
sS'burnt'
p715
I721
sS'would come'
p716
I722
sS'seems'
p717
I723
sS'food mediocre'
p718
I724
sS'wall'
p719
I725
sS'add'
p720
I726
sS'location'
p721
I727
sS'pretty good'
p722
I728
sS'definitely worth'
p723
I729
sS'ordered food'
p724
I546
sS'gave'
p725
I638
sS'real'
p726
I732
sS'complaint'
p727
I734
sS'around'
p728
I735
sS'lacking'
p729
I736
sS'would recommend'
p730
I737
sS'also great'
p731
I738
sS'big'
p732
I739
sS'couple'
p733
I740
sS'early'
p734
I741
sS'never bad'
p735
I487
sS'five'
p736
I743
sS'know'
p737
I744
sS'saying'
p738
I476
sS'another minutes'
p739
I909
sS'average'
p740
I881
sS'immediately'
p741
I712
sS'bit'
p742
I746
sS'lady'
p743
I505
sS'wings'
p744
I748
sS'name'
p745
I377
sS'well done'
p746
I750
sS'could get'
p747
I751
sS'like'
p748
I749
sS'onion'
p749
I752
sS'waited minutes'
p750
I753
sS'mashed potatoes'
p751
I650
sS'burgers'
p752
I695
sS'someone else'
p753
I529
sS'probably go'
p754
I540
sS'either'
p755
I755
sS'always'
p756
I283
sS'served'
p757
I757
sS'great atmosphere'
p758
I485
sS'seating'
p759
I759
sS'right'
p760
I760
sS'old'
p761
I761
sS'often'
p762
I762
sS'deal'
p763
I763
sS'people'
p764
I764
sS'absolutely'
p765
I765
sS'waitress came'
p766
I766
sS'highly recommend'
p767
I767
sS'date night'
p768
I768
sS'back'
p769
I769
sS'dining room'
p770
I408
sS'lobster'
p771
I773
sS'home'
p772
I774
sS'server'
p773
I754
sS'food amazing'
p774
I777
sS'gross'
p775
I778
sS'slice'
p776
I779
sS'chinese food'
p777
I780
sS'literally'
p778
I781
sS'avoid'
p779
I782
sS'best ever'
p780
I783
sS'fabulous'
p781
I784
sS'ice'
p782
I785
sS'ok nothing'
p783
I786
sS'wrong'
p784
I343
sS'everything'
p785
I788
sS'asking'
p786
I789
sS'expensive'
p787
I790
sS'next us'
p788
I791
sS'three'
p789
I605
sS'turkey'
p790
I793
sS'pepper'
p791
I63
sS'run'
p792
I71
sS'business'
p793
I795
sS'night'
p794
I756
sS'go back'
p795
I797
sS'mashed'
p796
I798
sS'although'
p797
I799
sS'friday night'
p798
I800
sS'pasta'
p799
I801
sS'sandwiches'
p800
I802
sS'bottom line'
p801
I803
sS'stay'
p802
I916
sS'super'
p803
I805
sS'rare'
p804
I167
sS'working'
p805
I807
sS'anything'
p806
I808
sS'oh'
p807
I809
sS'favorite'
p808
I810
sS'shrimp'
p809
I199
sS'always great'
p810
I812
sS'dinner'
p811
I813
sS'old school'
p812
I814
sS'plus'
p813
I211
sS'stand'
p814
I815
sS'drink order'
p815
I816
sS'mixed'
p816
I817
sS'mouth'
p817
I818
sS'every time'
p818
I819
sS'italian'
p819
I758
sS'food good'
p820
I821
sS'pretty much'
p821
I824
sS'great service'
p822
I825
sS'servers'
p823
I278
sS'mushrooms'
p824
I827
sS'homemade'
p825
I424
sS'even though'
p826
I829
sS'never return'
p827
I830
sS'would expect'
p828
I831
sS'next'
p829
I832
sS'finally got'
p830
I833
sS'rolls'
p831
I834
sS'wife'
p832
I929
sS'impressed'
p833
I835
sS'tasting'
p834
I341
sS'vegetables'
p835
I838
sS'fast'
p836
I363
sS'start'
p837
I840
sS'minutes get'
p838
I841
sS'lot'
p839
I225
sS'forward'
p840
I843
sS'said would'
p841
I396
sS'happy'
p842
I844
sS'medium'
p843
I423
sS'elsewhere'
p844
I846
sS'back try'
p845
I847
sS'filet'
p846
I437
sS'bite'
p847
I849
sS'pleased'
p848
I776
sS'great experience'
p849
I851
sS'oil'
p850
I852
sS'delivery'
p851
I853
sS'expected'
p852
I854
sS'hear'
p853
I472
sS'beans'
p854
I855
sS'might'
p855
I629
sS'bread pudding'
p856
I856
sS'line'
p857
I857
sS'trying'
p858
I858
sS'true'
p859
I859
sS'eat'
p860
I860
sS'spice'
p861
I861
sS'thru'
p862
I379
sS'portions'
p863
I863
sS'much better'
p864
I496
sS'service good'
p865
I83
sS'food service'
p866
I524
sS'inside'
p867
I867
sS'potato'
p868
I868
sS'fries'
p869
I869
sS'us'
p870
I870
sS'different'
p871
I656
sS'placed'
p872
I872
sS'bad service'
p873
I873
sS'recommend place'
p874
I874
sS'definitely back'
p875
I733
sS'traditional'
p876
I876
sS'cake'
p877
I877
sS'problem'
p878
I878
sS'fried'
p879
I879
sS'minutes'
p880
I880
sS'called'
p881
I576
sS'tastes'
p882
I882
sS'specials'
p883
I884
sS'instead'
p884
I885
sS'trio'
p885
I886
sS'horrible service'
p886
I887
sS'ordered'
p887
I888
sS'burger'
p888
I401
sS'forgot'
p889
I890
sS'pie'
p890
I190
sS'ordering'
p891
I372
sS'tasty'
p892
I892
sS'together'
p893
I893
sS'delicious food'
p894
I117
sS'trip'
p895
I436
sS'order food'
p896
I896
sS'cream'
p897
I897
sS'dor stop'
p898
I676
sS'love place'
p899
I775
sS'good thing'
p900
I899
sS'incredible'
p901
I196
sS'salads'
p902
I901
sS'tip'
p903
I706
sS'topped'
p904
I904
sS'always get'
p905
I905
sS'definitely'
p906
I469
sS'right amount'
p907
I908
sS'nice place'
p908
I470
sS'food place'
p909
I654
sS'nice'
p910
I911
sS'poor'
p911
I912
sS'star'
p912
I913
sS'getting'
p913
I826
sS'felt'
p914
I915
sS'prepared'
p915
I804
sS'sure'
p916
I772
sS'chance'
p917
I917
sS'kinda'
p918
I919
sS'reservation'
p919
I921
sS'priced'
p920
I922
sS'friends'
p921
I837
sS'meals'
p922
I923
sS'ago'
p923
I924
sS'notch'
p924
I925
sS'e'
p925
I926
sS'longer'
p926
I927
sS'yelp'
p927
I928
sS'phone'
p928
I770
sS'buffalo'
p929
I941
sS'comfortable'
p930
I931
sS'food excellent'
p931
I932
sS'one favorite'
p932
I710
sS'cole slaw'
p933
I474
sS'look'
p934
I628
sS'portion'
p935
I935
sS'take order'
p936
I936
sS'came'
p937
I937
sS'time'
p938
I938
sS'roll'
p939
I910
sS'fresh'
p940
I939
sS'goat'
p941
I903
sS'baked'
p942
I930
s.